target datalayout = "e-m:e-p270:32:32-p271:32:32-p272:64:64-i64:64-i128:128-f80:128-n8:16:32:64-S128"
target triple = "x86_64-pc-linux-gnu"

%struct.H5FA_class_t = type { i32, ptr, i64, ptr, ptr, ptr, ptr, ptr, ptr, ptr, ptr }
%struct.H5FA_hdr_t = type { %struct.H5C_cache_entry_t, %struct.H5FA_create_t, i64, %struct.H5FA_stat_t, i64, i64, i64, ptr, i64, i8, i64, i64, ptr, i8, ptr, ptr }
%struct.H5C_cache_entry_t = type { ptr, i64, i64, ptr, i8, ptr, i8, i8, i8, i8, i32, i8, i8, i8, i8, i8, i32, ptr, i32, i32, i32, i32, i32, i8, i8, ptr, ptr, ptr, ptr, ptr, ptr, i8, i32, i8, i64, ptr, i64, i64, i32, i8, i32, i32, i8, ptr, ptr, ptr }
%struct.H5FA_create_t = type { ptr, i8, i8, i64 }
%struct.H5FA_stat_t = type { i64, i64, i64 }

@.str = private unnamed_addr constant [101 x i8] c"generated/home/dtcxzyw/WorkSpace/Projects/compilers/llvm-opt-benchmark/bench/hdf5/hdf5/src/H5FAdbg.c\00", align 1
@__func__.H5FA__hdr_debug = private unnamed_addr constant [16 x i8] c"H5FA__hdr_debug\00", align 1
@H5E_FARRAY_g = external global i64, align 8
@H5E_CANTGET_g = external global i64, align 8
@.str.1 = private unnamed_addr constant [47 x i8] c"unable to create fixed array debugging context\00", align 1
@H5E_CANTPROTECT_g = external global i64, align 8
@.str.2 = private unnamed_addr constant [34 x i8] c"unable to load fixed array header\00", align 1
@.str.3 = private unnamed_addr constant [26 x i8] c"%*sFixed Array Header...\0A\00", align 1
@.str.4 = private unnamed_addr constant [1 x i8] zeroinitializer, align 1
@.str.5 = private unnamed_addr constant [12 x i8] c"%*s%-*s %s\0A\00", align 1
@.str.6 = private unnamed_addr constant [16 x i8] c"Array class ID:\00", align 1
@.str.7 = private unnamed_addr constant [13 x i8] c"%*s%-*s %zu\0A\00", align 1
@.str.8 = private unnamed_addr constant [13 x i8] c"Header size:\00", align 1
@.str.9 = private unnamed_addr constant [12 x i8] c"%*s%-*s %u\0A\00", align 1
@.str.10 = private unnamed_addr constant [18 x i8] c"Raw Element Size:\00", align 1
@.str.11 = private unnamed_addr constant [40 x i8] c"Native Element Size (on this platform):\00", align 1
@.str.12 = private unnamed_addr constant [39 x i8] c"Max. # of elements in data block page:\00", align 1
@.str.13 = private unnamed_addr constant [13 x i8] c"%*s%-*s %lu\0A\00", align 1
@.str.14 = private unnamed_addr constant [35 x i8] c"Number of elements in Fixed Array:\00", align 1
@.str.15 = private unnamed_addr constant [32 x i8] c"Fixed Array Data Block Address:\00", align 1
@H5E_CANTRELEASE_g = external global i64, align 8
@.str.16 = private unnamed_addr constant [48 x i8] c"unable to release fixed array debugging context\00", align 1
@H5E_CANTUNPROTECT_g = external global i64, align 8
@.str.17 = private unnamed_addr constant [37 x i8] c"unable to release fixed array header\00", align 1

; Function Attrs: nounwind uwtable
define i32 @H5FA__hdr_debug(ptr noundef %0, i64 noundef %1, ptr noundef %2, i32 noundef %3, i32 noundef %4, ptr noundef %5, i64 noundef %6) #0 {
  %8 = alloca ptr, align 8
  %9 = alloca i64, align 8
  %10 = alloca ptr, align 8
  %11 = alloca i32, align 4
  %12 = alloca i32, align 4
  %13 = alloca ptr, align 8
  %14 = alloca i64, align 8
  %15 = alloca ptr, align 8
  %16 = alloca ptr, align 8
  %17 = alloca i32, align 4
  %18 = alloca i8, align 1
  store ptr %0, ptr %8, align 8
  store i64 %1, ptr %9, align 8
  store ptr %2, ptr %10, align 8
  store i32 %3, ptr %11, align 4
  store i32 %4, ptr %12, align 4
  store ptr %5, ptr %13, align 8
  store i64 %6, ptr %14, align 8
  store ptr null, ptr %15, align 8
  store ptr null, ptr %16, align 8
  store i32 0, ptr %17, align 4
  store i8 0, ptr %18, align 1
  %19 = load ptr, ptr %13, align 8
  %20 = getelementptr inbounds %struct.H5FA_class_t, ptr %19, i32 0, i32 9
  %21 = load ptr, ptr %20, align 8
  %22 = icmp ne ptr %21, null
  br i1 %22, label %23, label %47

23:                                               ; preds = %7
  %24 = load ptr, ptr %13, align 8
  %25 = getelementptr inbounds %struct.H5FA_class_t, ptr %24, i32 0, i32 9
  %26 = load ptr, ptr %25, align 8
  %27 = load ptr, ptr %8, align 8
  %28 = load i64, ptr %14, align 8
  %29 = call ptr %26(ptr noundef %27, i64 noundef %28)
  store ptr %29, ptr %16, align 8
  %30 = icmp eq ptr null, %29
  br i1 %30, label %31, label %46

31:                                               ; preds = %23
  br label %32

32:                                               ; preds = %31
  br label %33

33:                                               ; preds = %32
  br label %34

34:                                               ; preds = %33
  %35 = load i64, ptr @H5E_FARRAY_g, align 8
  %36 = load i64, ptr @H5E_CANTGET_g, align 8
  %37 = call i32 (ptr, ptr, i32, i64, i64, ptr, ...) @H5E_printf_stack(ptr noundef @.str, ptr noundef @__func__.H5FA__hdr_debug, i32 noundef 101, i64 noundef %35, i64 noundef %36, ptr noundef @.str.1)
  br label %38

38:                                               ; preds = %34
  store i8 1, ptr %18, align 1
  %39 = load i8, ptr %18, align 1
  %40 = trunc i8 %39 to i1
  %41 = zext i1 %40 to i8
  store i8 %41, ptr %18, align 1
  br label %42

42:                                               ; preds = %38
  br label %43

43:                                               ; preds = %42
  store i32 -1, ptr %17, align 4
  br label %135

44:                                               ; No predecessors!
  br label %45

45:                                               ; preds = %44
  br label %46

46:                                               ; preds = %45, %23
  br label %47

47:                                               ; preds = %46, %7
  %48 = load ptr, ptr %8, align 8
  %49 = load i64, ptr %9, align 8
  %50 = load ptr, ptr %16, align 8
  %51 = call ptr @H5FA__hdr_protect(ptr noundef %48, i64 noundef %49, ptr noundef %50, i32 noundef 128)
  store ptr %51, ptr %15, align 8
  %52 = icmp eq ptr null, %51
  br i1 %52, label %53, label %68

53:                                               ; preds = %47
  br label %54

54:                                               ; preds = %53
  br label %55

55:                                               ; preds = %54
  br label %56

56:                                               ; preds = %55
  %57 = load i64, ptr @H5E_FARRAY_g, align 8
  %58 = load i64, ptr @H5E_CANTPROTECT_g, align 8
  %59 = call i32 (ptr, ptr, i32, i64, i64, ptr, ...) @H5E_printf_stack(ptr noundef @.str, ptr noundef @__func__.H5FA__hdr_debug, i32 noundef 105, i64 noundef %57, i64 noundef %58, ptr noundef @.str.2)
  br label %60

60:                                               ; preds = %56
  store i8 1, ptr %18, align 1
  %61 = load i8, ptr %18, align 1
  %62 = trunc i8 %61 to i1
  %63 = zext i1 %62 to i8
  store i8 %63, ptr %18, align 1
  br label %64

64:                                               ; preds = %60
  br label %65

65:                                               ; preds = %64
  store i32 -1, ptr %17, align 4
  br label %135

66:                                               ; No predecessors!
  br label %67

67:                                               ; preds = %66
  br label %68

68:                                               ; preds = %67, %47
  %69 = load ptr, ptr %10, align 8
  %70 = load i32, ptr %11, align 4
  %71 = call i32 (ptr, ptr, ...) @fprintf(ptr noundef %69, ptr noundef @.str.3, i32 noundef %70, ptr noundef @.str.4) #3
  %72 = load ptr, ptr %10, align 8
  %73 = load i32, ptr %11, align 4
  %74 = load i32, ptr %12, align 4
  %75 = load ptr, ptr %15, align 8
  %76 = getelementptr inbounds %struct.H5FA_hdr_t, ptr %75, i32 0, i32 1
  %77 = getelementptr inbounds %struct.H5FA_create_t, ptr %76, i32 0, i32 0
  %78 = load ptr, ptr %77, align 8
  %79 = getelementptr inbounds %struct.H5FA_class_t, ptr %78, i32 0, i32 1
  %80 = load ptr, ptr %79, align 8
  %81 = call i32 (ptr, ptr, ...) @fprintf(ptr noundef %72, ptr noundef @.str.5, i32 noundef %73, ptr noundef @.str.4, i32 noundef %74, ptr noundef @.str.6, ptr noundef %80) #3
  %82 = load ptr, ptr %10, align 8
  %83 = load i32, ptr %11, align 4
  %84 = load i32, ptr %12, align 4
  %85 = load ptr, ptr %15, align 8
  %86 = getelementptr inbounds %struct.H5FA_hdr_t, ptr %85, i32 0, i32 6
  %87 = load i64, ptr %86, align 8
  %88 = call i32 (ptr, ptr, ...) @fprintf(ptr noundef %82, ptr noundef @.str.7, i32 noundef %83, ptr noundef @.str.4, i32 noundef %84, ptr noundef @.str.8, i64 noundef %87) #3
  %89 = load ptr, ptr %10, align 8
  %90 = load i32, ptr %11, align 4
  %91 = load i32, ptr %12, align 4
  %92 = load ptr, ptr %15, align 8
  %93 = getelementptr inbounds %struct.H5FA_hdr_t, ptr %92, i32 0, i32 1
  %94 = getelementptr inbounds %struct.H5FA_create_t, ptr %93, i32 0, i32 1
  %95 = load i8, ptr %94, align 8
  %96 = zext i8 %95 to i32
  %97 = call i32 (ptr, ptr, ...) @fprintf(ptr noundef %89, ptr noundef @.str.9, i32 noundef %90, ptr noundef @.str.4, i32 noundef %91, ptr noundef @.str.10, i32 noundef %96) #3
  %98 = load ptr, ptr %10, align 8
  %99 = load i32, ptr %11, align 4
  %100 = load i32, ptr %12, align 4
  %101 = load ptr, ptr %15, align 8
  %102 = getelementptr inbounds %struct.H5FA_hdr_t, ptr %101, i32 0, i32 1
  %103 = getelementptr inbounds %struct.H5FA_create_t, ptr %102, i32 0, i32 0
  %104 = load ptr, ptr %103, align 8
  %105 = getelementptr inbounds %struct.H5FA_class_t, ptr %104, i32 0, i32 2
  %106 = load i64, ptr %105, align 8
  %107 = call i32 (ptr, ptr, ...) @fprintf(ptr noundef %98, ptr noundef @.str.7, i32 noundef %99, ptr noundef @.str.4, i32 noundef %100, ptr noundef @.str.11, i64 noundef %106) #3
  %108 = load ptr, ptr %10, align 8
  %109 = load i32, ptr %11, align 4
  %110 = load i32, ptr %12, align 4
  %111 = load ptr, ptr %15, align 8
  %112 = getelementptr inbounds %struct.H5FA_hdr_t, ptr %111, i32 0, i32 1
  %113 = getelementptr inbounds %struct.H5FA_create_t, ptr %112, i32 0, i32 2
  %114 = load i8, ptr %113, align 1
  %115 = zext i8 %114 to i32
  %116 = zext i32 %115 to i64
  %117 = shl i64 1, %116
  %118 = trunc i64 %117 to i32
  %119 = call i32 (ptr, ptr, ...) @fprintf(ptr noundef %108, ptr noundef @.str.9, i32 noundef %109, ptr noundef @.str.4, i32 noundef %110, ptr noundef @.str.12, i32 noundef %118) #3
  %120 = load ptr, ptr %10, align 8
  %121 = load i32, ptr %11, align 4
  %122 = load i32, ptr %12, align 4
  %123 = load ptr, ptr %15, align 8
  %124 = getelementptr inbounds %struct.H5FA_hdr_t, ptr %123, i32 0, i32 3
  %125 = getelementptr inbounds %struct.H5FA_stat_t, ptr %124, i32 0, i32 2
  %126 = load i64, ptr %125, align 8
  %127 = call i32 (ptr, ptr, ...) @fprintf(ptr noundef %120, ptr noundef @.str.13, i32 noundef %121, ptr noundef @.str.4, i32 noundef %122, ptr noundef @.str.14, i64 noundef %126) #3
  %128 = load ptr, ptr %10, align 8
  %129 = load i32, ptr %11, align 4
  %130 = load i32, ptr %12, align 4
  %131 = load ptr, ptr %15, align 8
  %132 = getelementptr inbounds %struct.H5FA_hdr_t, ptr %131, i32 0, i32 2
  %133 = load i64, ptr %132, align 8
  %134 = call i32 (ptr, ptr, ...) @fprintf(ptr noundef %128, ptr noundef @.str.13, i32 noundef %129, ptr noundef @.str.4, i32 noundef %130, ptr noundef @.str.15, i64 noundef %133) #3
  br label %135

135:                                              ; preds = %68, %65, %43
  %136 = load ptr, ptr %16, align 8
  %137 = icmp ne ptr %136, null
  br i1 %137, label %138, label %158

138:                                              ; preds = %135
  %139 = load ptr, ptr %13, align 8
  %140 = getelementptr inbounds %struct.H5FA_class_t, ptr %139, i32 0, i32 10
  %141 = load ptr, ptr %140, align 8
  %142 = load ptr, ptr %16, align 8
  %143 = call i32 %141(ptr noundef %142)
  %144 = icmp slt i32 %143, 0
  br i1 %144, label %145, label %158

145:                                              ; preds = %138
  br label %146

146:                                              ; preds = %145
  br label %147

147:                                              ; preds = %146
  br label %148

148:                                              ; preds = %147
  %149 = load i64, ptr @H5E_FARRAY_g, align 8
  %150 = load i64, ptr @H5E_CANTRELEASE_g, align 8
  %151 = call i32 (ptr, ptr, i32, i64, i64, ptr, ...) @H5E_printf_stack(ptr noundef @.str, ptr noundef @__func__.H5FA__hdr_debug, i32 noundef 129, i64 noundef %149, i64 noundef %150, ptr noundef @.str.16)
  br label %152

152:                                              ; preds = %148
  store i8 1, ptr %18, align 1
  %153 = load i8, ptr %18, align 1
  %154 = trunc i8 %153 to i1
  %155 = zext i1 %154 to i8
  store i8 %155, ptr %18, align 1
  br label %156

156:                                              ; preds = %152
  store i32 -1, ptr %17, align 4
  br label %157

157:                                              ; preds = %156
  br label %158

158:                                              ; preds = %157, %138, %135
  %159 = load ptr, ptr %15, align 8
  %160 = icmp ne ptr %159, null
  br i1 %160, label %161, label %178

161:                                              ; preds = %158
  %162 = load ptr, ptr %15, align 8
  %163 = call i32 @H5FA__hdr_unprotect(ptr noundef %162, i32 noundef 0)
  %164 = icmp slt i32 %163, 0
  br i1 %164, label %165, label %178

165:                                              ; preds = %161
  br label %166

166:                                              ; preds = %165
  br label %167

167:                                              ; preds = %166
  br label %168

168:                                              ; preds = %167
  %169 = load i64, ptr @H5E_FARRAY_g, align 8
  %170 = load i64, ptr @H5E_CANTUNPROTECT_g, align 8
  %171 = call i32 (ptr, ptr, i32, i64, i64, ptr, ...) @H5E_printf_stack(ptr noundef @.str, ptr noundef @__func__.H5FA__hdr_debug, i32 noundef 131, i64 noundef %169, i64 noundef %170, ptr noundef @.str.17)
  br label %172

172:                                              ; preds = %168
  store i8 1, ptr %18, align 1
  %173 = load i8, ptr %18, align 1
  %174 = trunc i8 %173 to i1
  %175 = zext i1 %174 to i8
  store i8 %175, ptr %18, align 1
  br label %176

176:                                              ; preds = %172
  store i32 -1, ptr %17, align 4
  br label %177

177:                                              ; preds = %176
  br label %178

178:                                              ; preds = %177, %161, %158
  %179 = load i32, ptr %17, align 4
  ret i32 %179
}