; Function Attrs: nounwind uwtable
define range(i32 -1, 1) i32 @H5FA__hdr_debug(ptr noundef %0, i64 noundef %1, ptr nocapture noundef %2, i32 noundef %3, i32 noundef %4, ptr nocapture noundef readonly %5, i64 noundef %6) local_unnamed_addr #0 {
  %8 = getelementptr inbounds i8, ptr %5, i64 72
  %9 = load ptr, ptr %8, align 8
  %.not = icmp eq ptr %9, null
  br i1 %.not, label %16, label %10

10:                                               ; preds = %7
  %11 = tail call ptr %9(ptr noundef %0, i64 noundef %6) #4
  %12 = icmp eq ptr %11, null
  br i1 %12, label %.thread61, label %16

.thread61:                                        ; preds = %10
  %13 = load i64, ptr @H5E_FARRAY_g, align 8
  %14 = load i64, ptr @H5E_CANTGET_g, align 8
  %15 = tail call i32 (ptr, ptr, i32, i64, i64, ptr, ...) @H5E_printf_stack(ptr noundef nonnull @.str, ptr noundef nonnull @__func__.H5FA__hdr_debug, i32 noundef 101, i64 noundef %13, i64 noundef %14, ptr noundef nonnull @.str.1) #4
  br label %71

16:                                               ; preds = %10, %7
  %.046 = phi ptr [ %11, %10 ], [ null, %7 ]
  %17 = tail call ptr @H5FA__hdr_protect(ptr noundef %0, i64 noundef %1, ptr noundef %.046, i32 noundef 128) #4
  %18 = icmp eq ptr %17, null
  br i1 %18, label %19, label %23

19:                                               ; preds = %16
  %20 = load i64, ptr @H5E_FARRAY_g, align 8
  %21 = load i64, ptr @H5E_CANTPROTECT_g, align 8
  %22 = tail call i32 (ptr, ptr, i32, i64, i64, ptr, ...) @H5E_printf_stack(ptr noundef nonnull @.str, ptr noundef nonnull @__func__.H5FA__hdr_debug, i32 noundef 105, i64 noundef %20, i64 noundef %21, ptr noundef nonnull @.str.2) #4
  br label %53

23:                                               ; preds = %16
  %24 = tail call i32 (ptr, ptr, ...) @fprintf(ptr noundef %2, ptr noundef nonnull @.str.3, i32 noundef %3, ptr noundef nonnull @.str.4) #4
  %25 = getelementptr inbounds i8, ptr %17, i64 248
  %26 = load ptr, ptr %25, align 8
  %27 = getelementptr inbounds i8, ptr %26, i64 8
  %28 = load ptr, ptr %27, align 8
  %29 = tail call i32 (ptr, ptr, ...) @fprintf(ptr noundef %2, ptr noundef nonnull @.str.5, i32 noundef %3, ptr noundef nonnull @.str.4, i32 noundef %4, ptr noundef nonnull @.str.6, ptr noundef %28) #4
  %30 = getelementptr inbounds i8, ptr %17, i64 320
  %31 = load i64, ptr %30, align 8
  %32 = tail call i32 (ptr, ptr, ...) @fprintf(ptr noundef %2, ptr noundef nonnull @.str.7, i32 noundef %3, ptr noundef nonnull @.str.4, i32 noundef %4, ptr noundef nonnull @.str.8, i64 noundef %31) #4
  %33 = getelementptr inbounds i8, ptr %17, i64 256
  %34 = load i8, ptr %33, align 8
  %35 = zext i8 %34 to i32
  %36 = tail call i32 (ptr, ptr, ...) @fprintf(ptr noundef %2, ptr noundef nonnull @.str.9, i32 noundef %3, ptr noundef nonnull @.str.4, i32 noundef %4, ptr noundef nonnull @.str.10, i32 noundef %35) #4
  %37 = load ptr, ptr %25, align 8
  %38 = getelementptr inbounds i8, ptr %37, i64 16
  %39 = load i64, ptr %38, align 8
  %40 = tail call i32 (ptr, ptr, ...) @fprintf(ptr noundef %2, ptr noundef nonnull @.str.7, i32 noundef %3, ptr noundef nonnull @.str.4, i32 noundef %4, ptr noundef nonnull @.str.11, i64 noundef %39) #4
  %41 = getelementptr inbounds i8, ptr %17, i64 257
  %42 = load i8, ptr %41, align 1
  %43 = zext nneg i8 %42 to i64
  %44 = shl nuw i64 1, %43
  %45 = trunc i64 %44 to i32
  %46 = tail call i32 (ptr, ptr, ...) @fprintf(ptr noundef %2, ptr noundef nonnull @.str.9, i32 noundef %3, ptr noundef nonnull @.str.4, i32 noundef %4, ptr noundef nonnull @.str.12, i32 noundef %45) #4
  %47 = getelementptr inbounds i8, ptr %17, i64 296
  %48 = load i64, ptr %47, align 8
  %49 = tail call i32 (ptr, ptr, ...) @fprintf(ptr noundef %2, ptr noundef nonnull @.str.13, i32 noundef %3, ptr noundef nonnull @.str.4, i32 noundef %4, ptr noundef nonnull @.str.14, i64 noundef %48) #4
  %50 = getelementptr inbounds i8, ptr %17, i64 272
  %51 = load i64, ptr %50, align 8
  %52 = tail call i32 (ptr, ptr, ...) @fprintf(ptr noundef %2, ptr noundef nonnull @.str.13, i32 noundef %3, ptr noundef nonnull @.str.4, i32 noundef %4, ptr noundef nonnull @.str.15, i64 noundef %51) #4
  br label %53

53:                                               ; preds = %23, %19
  %.0 = phi i32 [ -1, %19 ], [ 0, %23 ]
  %.not54 = icmp eq ptr %.046, null
  br i1 %.not54, label %63, label %54

54:                                               ; preds = %53
  %55 = getelementptr inbounds i8, ptr %5, i64 80
  %56 = load ptr, ptr %55, align 8
  %57 = tail call i32 %56(ptr noundef nonnull %.046) #4
  %58 = icmp slt i32 %57, 0
  br i1 %58, label %59, label %63

59:                                               ; preds = %54
  %60 = load i64, ptr @H5E_FARRAY_g, align 8
  %61 = load i64, ptr @H5E_CANTRELEASE_g, align 8
  %62 = tail call i32 (ptr, ptr, i32, i64, i64, ptr, ...) @H5E_printf_stack(ptr noundef nonnull @.str, ptr noundef nonnull @__func__.H5FA__hdr_debug, i32 noundef 129, i64 noundef %60, i64 noundef %61, ptr noundef nonnull @.str.16) #4
  br label %63

63:                                               ; preds = %59, %54, %53
  %.1 = phi i32 [ -1, %59 ], [ %.0, %54 ], [ %.0, %53 ]
  br i1 %18, label %71, label %64

64:                                               ; preds = %63
  %65 = tail call i32 @H5FA__hdr_unprotect(ptr noundef nonnull %17, i32 noundef 0) #4
  %66 = icmp slt i32 %65, 0
  br i1 %66, label %67, label %71

67:                                               ; preds = %64
  %68 = load i64, ptr @H5E_FARRAY_g, align 8
  %69 = load i64, ptr @H5E_CANTUNPROTECT_g, align 8
  %70 = tail call i32 (ptr, ptr, i32, i64, i64, ptr, ...) @H5E_printf_stack(ptr noundef nonnull @.str, ptr noundef nonnull @__func__.H5FA__hdr_debug, i32 noundef 131, i64 noundef %68, i64 noundef %69, ptr noundef nonnull @.str.17) #4
  br label %71

71:                                               ; preds = %.thread61, %67, %64, %63
  %.2 = phi i32 [ -1, %67 ], [ %.1, %64 ], [ %.1, %63 ], [ -1, %.thread61 ]
  ret i32 %.2
}